; Function Attrs: mustprogress noreturn uwtable
define noalias noundef nonnull align 8 dereferenceable(8) ptr @_ZN2cv4gapi4s11nrsERNS1_8IIStreamERNS_4RMatE(ptr noundef nonnull readnone align 8 captures(none) dereferenceable(8) %0, ptr noundef nonnull readnone align 8 captures(none) dereferenceable(16) %1) local_unnamed_addr #4 personality ptr @__gxx_personality_v0 {
  %3 = alloca %"class.std::logic_error", align 8
  call void @llvm.lifetime.start.p0(i64 16, ptr nonnull %3) #31
  call void @_ZNSt11logic_errorC1EPKc(ptr noundef nonnull align 8 dereferenceable(16) %3, ptr noundef nonnull @.str)
  invoke void @_ZN2cv4util11throw_errorISt11logic_errorEEvOT_(ptr noundef nonnull align 8 dereferenceable(16) %3) #32
          to label %4 unwind label %5

4:                                                ; preds = %2
  unreachable

5:                                                ; preds = %2
  %6 = landingpad { ptr, i32 }
          cleanup
  call void @_ZNSt11logic_errorD1Ev(ptr noundef nonnull align 8 dereferenceable(16) %3) #31
  call void @llvm.lifetime.end.p0(i64 16, ptr nonnull %3) #31
  resume { ptr, i32 } %6
}